Certificate:
    Data:
        Version: 1 (0x0)
        Serial Number: 1 (0x1)
    Signature Algorithm: sha256WithRSAEncryption
        Issuer: C=FR, CN=Spritz CA
        Validity
            Not Before: Jul  4 15:24:06 2017 GMT
            Not After : Jun 10 15:24:06 2117 GMT
        Subject: CN=Spritz, C=US
        Subject Public Key Info:
            Public Key Algorithm: rsaEncryption
                Public-Key: (2048 bit)
                Modulus:
                    00:a4:ab:07:02:88:cc:87:c0:65:39:b3:60:ff:e1:
                    6a:1d:a9:19:62:1d:2b:07:db:da:ab:8f:ea:05:fb:
                    18:1c:f2:af:4d:40:6c:08:56:a7:e6:8d:ff:6f:51:
                    57:6f:2f:e7:8d:e7:a9:24:27:ab:65:c6:57:2d:d3:
                    b4:57:b7:ad:fe:fb:c0:8d:33:16:58:ab:bf:32:9e:
                    fc:43:f8:67:33:59:8a:1f:e4:30:a6:b5:da:7f:ed:
                    c8:9e:af:af:63:57:05:18:73:9a:b6:0e:25:79:34:
                    9b:75:10:4c:ed:86:1b:66:04:ed:3e:bb:d7:fb:1a:
                    7e:9d:db:19:a6:04:9e:69:67:5b:48:02:24:af:cb:
                    cd:5d:b2:33:ee:2c:69:4b:04:d4:f1:9f:56:65:2e:
                    ca:b7:a5:90:03:1a:67:33:30:6a:f0:57:d8:78:a8:
                    69:63:c3:84:6e:28:e1:c3:58:0d:a4:31:9a:bb:ca:
                    f5:df:ce:92:71:c3:58:50:e6:f5:65:c6:08:08:ab:
                    6a:b5:fc:2b:61:bf:84:94:fd:54:ff:a0:13:4f:d7:
                    5f:f0:2e:4a:24:91:55:5f:6c:84:41:31:17:a8:52:
                    25:75:b5:4c:10:7e:9e:bc:0e:b0:43:90:fa:dd:5b:
                    3c:8f:09:30:12:e0:cc:7a:5f:f7:40:47:93:9a:36:
                    4f:05
                Exponent: 65537 (0x10001)
    Signature Algorithm: sha256WithRSAEncryption
         61:11:df:e8:9d:3a:19:c3:20:40:29:1c:28:51:a1:31:29:7c:
         2d:fd:ea:d9:40:8a:25:9e:83:be:91:92:ca:55:6d:cd:dd:99:
         8c:07:40:82:cc:72:e3:18:f0:62:04:86:cd:44:15:23:51:56:
         e6:9b:5d:68:3b:e5:39:1a:07:e4:f9:b5:4a:5b:14:29:58:7b:
         13:17:94:7c:54:94:b3:be:45:d7:f9:d2:04:a2:a1:f2:b1:f9:
         e7:94:fc:f2:c4:f1:7c:a6:0f:0c:b9:34:b6:84:1f:85:00:37:
         3c:fb:22:0b:41:e6:0e:e1:06:0f:67:72:74:09:48:4a:c1:fa:
         52:75:1b:08:c9:25:36:74:6e:c7:73:1b:66:0d:ae:ab:68:4b:
         6f:31:0a:65:d1:1c:ac:a1:3f:46:29:5e:bf:c7:2a:da:d7:63:
         32:18:62:fa:a8:21:ba:15:87:3e:ca:53:d7:e8:f2:58:60:de:
         e5:d0:a7:1a:39:94:8e:8b:01:af:24:c3:4b:10:52:80:38:c4:
         08:47:92:7c:d2:1a:de:0a:47:dd:14:7d:8b:95:ea:75:12:93:
         5a:04:29:da:ae:f8:f8:77:da:73:cc:92:7b:f8:af:df:fb:99:
         81:73:04:92:e5:46:d5:5a:03:4f:75:61:e2:7e:b0:c0:a2:ec:
         25:23:c6:3d
-----BEGIN CERTIFICATE-----
MIICtTCCAZ0CAQEwDQYJKoZIhvcNAQELBQAwITELMAkGA1UEBhMCRlIxEjAQBgNV
BAMMCVNwcml0eiBDQTAgFw0xNzA3MDQxNTI0MDZaGA8yMTE3MDYxMDE1MjQwNlow
HjEPMA0GA1UEAwwGU3ByaXR6MQswCQYDVQQGEwJVUzCCASIwDQYJKoZIhvcNAQEB
BQADggEPADCCAQoCggEBAKSrBwKIzIfAZTmzYP/hah2pGWIdKwfb2quP6gX7GBzy
r01AbAhWp+aN/29RV28v543nqSQnq2XGVy3TtFe3rf77wI0zFlirvzKe/EP4ZzNZ
ih/kMKa12n/tyJ6vr2NXBRhzmrYOJXk0m3UQTO2GG2YE7T671/safp3bGaYEnmln
W0gCJK/LzV2yM+4saUsE1PGfVmUuyrelkAMaZzMwavBX2HioaWPDhG4o4cNYDaQx
mrvK9d/OknHDWFDm9WXGCAirarX8K2G/hJT9VP+gE0/XX/AuSiSRVV9shEExF6hS
JXW1TBB+nrwOsEOQ+t1bPI8JMBLgzHpf90BHk5o2TwUCAwEAATANBgkqhkiG9w0B
AQsFAAOCAQEAYRHf6J06GcMgQCkcKFGhMSl8Lf3q2UCKJZ6DvpGSylVtzd2ZjAdA
gsxy4xjwYgSGzUQVI1FW5ptdaDvlORoH5Pm1SlsUKVh7ExeUfFSUs75F1/nSBKKh
8rH555T88sTxfKYPDLk0toQfhQA3PPsiC0HmDuEGD2dydAlISsH6UnUbCMklNnRu
x3MbZg2uq2hLbzEKZdEcrKE/Rilev8cq2tdjMhhi+qghuhWHPspT1+jyWGDe5dCn
GjmUjosBryTDSxBSgDjECEeSfNIa3gpH3RR9i5XqdRKTWgQp2q74+Hfac8ySe/iv
3/uZgXMEkuVG1VoDT3Vh4n6wwKLsJSPGPQ==
-----END CERTIFICATE-----
